target datalayout = "e-m:e-p270:32:32-p271:32:32-p272:64:64-i64:64-i128:128-f80:128-n8:16:32:64-S128"
target triple = "x86_64-unknown-linux-gnu"

%"class.icu_75::RegexPattern" = type { %"class.icu_75::UObject", ptr, ptr, i32, ptr, %"class.icu_75::UnicodeString", ptr, ptr, i32, i32, i32, i32, ptr, i32, i32, i32, ptr, i32, ptr, i8, ptr }
%"class.icu_75::UObject" = type { ptr }
%"class.icu_75::UnicodeString" = type { %"class.icu_75::Replaceable", %"union.icu_75::UnicodeString::StackBufferOrFields" }
%"class.icu_75::Replaceable" = type { %"class.icu_75::UObject" }
%"union.icu_75::UnicodeString::StackBufferOrFields" = type { %struct.anon.0, [32 x i8] }
%struct.anon.0 = type { i16, i32, i32, ptr }
%"struct.icu_75::Regex8BitSet" = type { [32 x i8] }

; Function Attrs: mustprogress nounwind uwtable
define linkonce_odr void @_ZN6icu_7513UnicodeString13setZeroLengthEv(ptr noundef nonnull align 8 dereferenceable(64) %this) #0 comdat align 2 {
entry:
  %this.addr = alloca ptr, align 8
  store ptr %this, ptr %this.addr, align 8
  %this1 = load ptr, ptr %this.addr, align 8
  %fUnion = getelementptr inbounds %"class.icu_75::UnicodeString", ptr %this1, i32 0, i32 1
  %fLengthAndFlags = getelementptr inbounds %struct.anon.0, ptr %fUnion, i32 0, i32 0
  %0 = load i16, ptr %fLengthAndFlags, align 8
  %conv = sext i16 %0 to i32
  %and = and i32 %conv, 31
  %conv2 = trunc i32 %and to i16
  store i16 %conv2, ptr %fLengthAndFlags, align 8
  ret void
}

; Function Attrs: mustprogress nounwind uwtable
define linkonce_odr void @_ZN6icu_7513UnicodeString10setToEmptyEv(ptr noundef nonnull align 8 dereferenceable(64) %this) #0 comdat align 2 {
entry:
  %this.addr = alloca ptr, align 8
  store ptr %this, ptr %this.addr, align 8
  %this1 = load ptr, ptr %this.addr, align 8
  %fUnion = getelementptr inbounds %"class.icu_75::UnicodeString", ptr %this1, i32 0, i32 1
  %fLengthAndFlags = getelementptr inbounds %struct.anon.0, ptr %fUnion, i32 0, i32 0
  store i16 2, ptr %fLengthAndFlags, align 8
  ret void
}

; Function Attrs: mustprogress nounwind uwtable
define linkonce_odr noundef signext i8 @_ZNK6icu_7513UnicodeString7isBogusEv(ptr noundef nonnull align 8 dereferenceable(64) %this) #0 comdat align 2 {
entry:
  %this.addr = alloca ptr, align 8
  store ptr %this, ptr %this.addr, align 8
  %this1 = load ptr, ptr %this.addr, align 8
  %fUnion = getelementptr inbounds %"class.icu_75::UnicodeString", ptr %this1, i32 0, i32 1
  %fLengthAndFlags = getelementptr inbounds %struct.anon.0, ptr %fUnion, i32 0, i32 0
  %0 = load i16, ptr %fLengthAndFlags, align 8
  %conv = sext i16 %0 to i32
  %and = and i32 %conv, 1
  %conv2 = trunc i32 %and to i8
  ret i8 %conv2
}

; Function Attrs: mustprogress nounwind uwtable
define internal noundef signext i8 @_ZL9U_FAILURE10UErrorCode(i32 noundef %code) #0 {
entry:
  %code.addr = alloca i32, align 4
  store i32 %code, ptr %code.addr, align 4
  %0 = load i32, ptr %code.addr, align 4
  %cmp = icmp sgt i32 %0, 0
  %conv = zext i1 %cmp to i8
  ret i8 %conv
}

; Function Attrs: mustprogress nounwind uwtable
define linkonce_odr void @_ZN6icu_7512Regex8BitSetC2Ev(ptr noundef nonnull align 1 dereferenceable(32) %this) unnamed_addr #0 comdat align 2 {
entry:
  %this.addr = alloca ptr, align 8
  store ptr %this, ptr %this.addr, align 8
  %this1 = load ptr, ptr %this.addr, align 8
  %d = getelementptr inbounds %"struct.icu_75::Regex8BitSet", ptr %this1, i32 0, i32 0
  %arraydecay = getelementptr inbounds [32 x i8], ptr %d, i64 0, i64 0
  call void @llvm.memset.p0.i64(ptr align 1 %arraydecay, i8 0, i64 32, i1 false)
  ret void
}

; Function Attrs: mustprogress uwtable
define linkonce_odr noundef nonnull align 8 dereferenceable(64) ptr @_ZN6icu_7513UnicodeString6removeEv(ptr noundef nonnull align 8 dereferenceable(64) %this) #1 comdat align 2 {
entry:
  %this.addr = alloca ptr, align 8
  store ptr %this, ptr %this.addr, align 8
  %this1 = load ptr, ptr %this.addr, align 8
  %call = call noundef signext i8 @_ZNK6icu_7513UnicodeString7isBogusEv(ptr noundef nonnull align 8 dereferenceable(64) %this1)
  %tobool = icmp ne i8 %call, 0
  br i1 %tobool, label %if.then, label %if.else

if.then:                                          ; preds = %entry
  call void @_ZN6icu_7513UnicodeString10setToEmptyEv(ptr noundef nonnull align 8 dereferenceable(64) %this1)
  br label %if.end

if.else:                                          ; preds = %entry
  call void @_ZN6icu_7513UnicodeString13setZeroLengthEv(ptr noundef nonnull align 8 dereferenceable(64) %this1)
  br label %if.end

if.end:                                           ; preds = %if.else, %if.then
  ret ptr %this1
}

; Function Attrs: mustprogress uwtable
define void @_ZN6icu_7512RegexPattern4initEv(ptr noundef nonnull align 8 dereferenceable(200) %this) #1 align 2 personality ptr @__gxx_personality_v0 {
entry:
  %this.addr = alloca ptr, align 8
  %cleanup.cond = alloca i1, align 1
  %exn.slot = alloca ptr, align 8
  %ehselector.slot = alloca i32, align 4
  %saved-rvalue = alloca ptr, align 8
  %cleanup.cond8 = alloca i1, align 1
  %saved-rvalue20 = alloca ptr, align 8
  %cleanup.cond21 = alloca i1, align 1
  %saved-rvalue33 = alloca ptr, align 8
  %cleanup.cond34 = alloca i1, align 1
  %saved-rvalue45 = alloca ptr, align 8
  %cleanup.cond46 = alloca i1, align 1
  store ptr %this, ptr %this.addr, align 8
  %this1 = load ptr, ptr %this.addr, align 8
  %fFlags = getelementptr inbounds %"class.icu_75::RegexPattern", ptr %this1, i32 0, i32 3
  store i32 0, ptr %fFlags, align 8
  %fCompiledPat = getelementptr inbounds %"class.icu_75::RegexPattern", ptr %this1, i32 0, i32 4
  store ptr null, ptr %fCompiledPat, align 8
  %fLiteralText = getelementptr inbounds %"class.icu_75::RegexPattern", ptr %this1, i32 0, i32 5
  %call = call noundef nonnull align 8 dereferenceable(64) ptr @_ZN6icu_7513UnicodeString6removeEv(ptr noundef nonnull align 8 dereferenceable(64) %fLiteralText)
  %fSets = getelementptr inbounds %"class.icu_75::RegexPattern", ptr %this1, i32 0, i32 6
  store ptr null, ptr %fSets, align 8
  %fSets8 = getelementptr inbounds %"class.icu_75::RegexPattern", ptr %this1, i32 0, i32 7
  store ptr null, ptr %fSets8, align 8
  %fDeferredStatus = getelementptr inbounds %"class.icu_75::RegexPattern", ptr %this1, i32 0, i32 8
  store i32 0, ptr %fDeferredStatus, align 8
  %fMinMatchLen = getelementptr inbounds %"class.icu_75::RegexPattern", ptr %this1, i32 0, i32 9
  store i32 0, ptr %fMinMatchLen, align 4
  %fFrameSize = getelementptr inbounds %"class.icu_75::RegexPattern", ptr %this1, i32 0, i32 10
  store i32 0, ptr %fFrameSize, align 8
  %fDataSize = getelementptr inbounds %"class.icu_75::RegexPattern", ptr %this1, i32 0, i32 11
  store i32 0, ptr %fDataSize, align 4
  %fGroupMap = getelementptr inbounds %"class.icu_75::RegexPattern", ptr %this1, i32 0, i32 12
  store ptr null, ptr %fGroupMap, align 8
  %fStartType = getelementptr inbounds %"class.icu_75::RegexPattern", ptr %this1, i32 0, i32 13
  store i32 0, ptr %fStartType, align 8
  %fInitialStringIdx = getelementptr inbounds %"class.icu_75::RegexPattern", ptr %this1, i32 0, i32 14
  store i32 0, ptr %fInitialStringIdx, align 4
  %fInitialStringLen = getelementptr inbounds %"class.icu_75::RegexPattern", ptr %this1, i32 0, i32 15
  store i32 0, ptr %fInitialStringLen, align 8
  %fInitialChars = getelementptr inbounds %"class.icu_75::RegexPattern", ptr %this1, i32 0, i32 16
  store ptr null, ptr %fInitialChars, align 8
  %fInitialChar = getelementptr inbounds %"class.icu_75::RegexPattern", ptr %this1, i32 0, i32 17
  store i32 0, ptr %fInitialChar, align 8
  %fInitialChars8 = getelementptr inbounds %"class.icu_75::RegexPattern", ptr %this1, i32 0, i32 18
  store ptr null, ptr %fInitialChars8, align 8
  %fNeedsAltInput = getelementptr inbounds %"class.icu_75::RegexPattern", ptr %this1, i32 0, i32 19
  store i8 0, ptr %fNeedsAltInput, align 8
  %fNamedCaptureMap = getelementptr inbounds %"class.icu_75::RegexPattern", ptr %this1, i32 0, i32 20
  store ptr null, ptr %fNamedCaptureMap, align 8
  %fPattern = getelementptr inbounds %"class.icu_75::RegexPattern", ptr %this1, i32 0, i32 1
  store ptr null, ptr %fPattern, align 8
  %fPatternString = getelementptr inbounds %"class.icu_75::RegexPattern", ptr %this1, i32 0, i32 2
  store ptr null, ptr %fPatternString, align 8
  %call2 = call noundef ptr @_ZN6icu_757UMemorynwEm(i64 noundef 32) #9
  %new.isnull = icmp eq ptr %call2, null
  store i1 false, ptr %cleanup.cond, align 1
  br i1 %new.isnull, label %new.cont, label %new.notnull

new.notnull:                                      ; preds = %entry
  store i1 true, ptr %cleanup.cond, align 1
  %fDeferredStatus3 = getelementptr inbounds %"class.icu_75::RegexPattern", ptr %this1, i32 0, i32 8
  invoke void @_ZN6icu_759UVector64C1ER10UErrorCode(ptr noundef nonnull align 8 dereferenceable(32) %call2, ptr noundef nonnull align 4 dereferenceable(4) %fDeferredStatus3)
          to label %invoke.cont unwind label %lpad

invoke.cont:                                      ; preds = %new.notnull
  br label %new.cont

new.cont:                                         ; preds = %invoke.cont, %entry
  %0 = phi ptr [ %call2, %invoke.cont ], [ null, %entry ]
  %fCompiledPat4 = getelementptr inbounds %"class.icu_75::RegexPattern", ptr %this1, i32 0, i32 4
  store ptr %0, ptr %fCompiledPat4, align 8
  %call5 = call noundef ptr @_ZN6icu_757UMemorynwEm(i64 noundef 32) #9
  %new.isnull6 = icmp eq ptr %call5, null
  store i1 false, ptr %cleanup.cond8, align 1
  br i1 %new.isnull6, label %new.cont15, label %new.notnull7

new.notnull7:                                     ; preds = %new.cont
  store ptr %call5, ptr %saved-rvalue, align 8
  store i1 true, ptr %cleanup.cond8, align 1
  %fDeferredStatus9 = getelementptr inbounds %"class.icu_75::RegexPattern", ptr %this1, i32 0, i32 8
  invoke void @_ZN6icu_759UVector32C1ER10UErrorCode(ptr noundef nonnull align 8 dereferenceable(32) %call5, ptr noundef nonnull align 4 dereferenceable(4) %fDeferredStatus9)
          to label %invoke.cont11 unwind label %lpad10

invoke.cont11:                                    ; preds = %new.notnull7
  br label %new.cont15

new.cont15:                                       ; preds = %invoke.cont11, %new.cont
  %1 = phi ptr [ %call5, %invoke.cont11 ], [ null, %new.cont ]
  %fGroupMap16 = getelementptr inbounds %"class.icu_75::RegexPattern", ptr %this1, i32 0, i32 12
  store ptr %1, ptr %fGroupMap16, align 8
  %call17 = call noundef ptr @_ZN6icu_757UMemorynwEm(i64 noundef 40) #9
  %new.isnull18 = icmp eq ptr %call17, null
  store i1 false, ptr %cleanup.cond21, align 1
  br i1 %new.isnull18, label %new.cont28, label %new.notnull19

new.notnull19:                                    ; preds = %new.cont15
  store ptr %call17, ptr %saved-rvalue20, align 8
  store i1 true, ptr %cleanup.cond21, align 1
  %fDeferredStatus22 = getelementptr inbounds %"class.icu_75::RegexPattern", ptr %this1, i32 0, i32 8
  invoke void @_ZN6icu_757UVectorC1ER10UErrorCode(ptr noundef nonnull align 8 dereferenceable(40) %call17, ptr noundef nonnull align 4 dereferenceable(4) %fDeferredStatus22)
          to label %invoke.cont24 unwind label %lpad23

invoke.cont24:                                    ; preds = %new.notnull19
  br label %new.cont28

new.cont28:                                       ; preds = %invoke.cont24, %new.cont15
  %2 = phi ptr [ %call17, %invoke.cont24 ], [ null, %new.cont15 ]
  %fSets29 = getelementptr inbounds %"class.icu_75::RegexPattern", ptr %this1, i32 0, i32 6
  store ptr %2, ptr %fSets29, align 8
  %call30 = call noundef ptr @_ZN6icu_757UMemorynwEm(i64 noundef 200) #9
  %new.isnull31 = icmp eq ptr %call30, null
  store i1 false, ptr %cleanup.cond34, align 1
  br i1 %new.isnull31, label %new.cont40, label %new.notnull32

new.notnull32:                                    ; preds = %new.cont28
  store ptr %call30, ptr %saved-rvalue33, align 8
  store i1 true, ptr %cleanup.cond34, align 1
  invoke void @_ZN6icu_7510UnicodeSetC1Ev(ptr noundef nonnull align 8 dereferenceable(200) %call30)
          to label %invoke.cont36 unwind label %lpad35

invoke.cont36:                                    ; preds = %new.notnull32
  br label %new.cont40

new.cont40:                                       ; preds = %invoke.cont36, %new.cont28
  %3 = phi ptr [ %call30, %invoke.cont36 ], [ null, %new.cont28 ]
  %fInitialChars41 = getelementptr inbounds %"class.icu_75::RegexPattern", ptr %this1, i32 0, i32 16
  store ptr %3, ptr %fInitialChars41, align 8
  %call42 = call noundef ptr @_ZN6icu_757UMemorynwEm(i64 noundef 32) #9
  %new.isnull43 = icmp eq ptr %call42, null
  store i1 false, ptr %cleanup.cond46, align 1
  br i1 %new.isnull43, label %new.cont52, label %new.notnull44

new.notnull44:                                    ; preds = %new.cont40
  store ptr %call42, ptr %saved-rvalue45, align 8
  store i1 true, ptr %cleanup.cond46, align 1
  invoke void @_ZN6icu_7512Regex8BitSetC2Ev(ptr noundef nonnull align 1 dereferenceable(32) %call42)
          to label %invoke.cont48 unwind label %lpad47

invoke.cont48:                                    ; preds = %new.notnull44
  br label %new.cont52

new.cont52:                                       ; preds = %invoke.cont48, %new.cont40
  %4 = phi ptr [ %call42, %invoke.cont48 ], [ null, %new.cont40 ]
  %fInitialChars853 = getelementptr inbounds %"class.icu_75::RegexPattern", ptr %this1, i32 0, i32 18
  store ptr %4, ptr %fInitialChars853, align 8
  %fDeferredStatus54 = getelementptr inbounds %"class.icu_75::RegexPattern", ptr %this1, i32 0, i32 8
  %5 = load i32, ptr %fDeferredStatus54, align 8
  %call55 = call noundef signext i8 @_ZL9U_FAILURE10UErrorCode(i32 noundef %5)
  %tobool = icmp ne i8 %call55, 0
  br i1 %tobool, label %if.then, label %if.end

if.then:                                          ; preds = %new.cont52
  br label %return

lpad:                                             ; preds = %new.notnull
  %6 = landingpad { ptr, i32 }
          cleanup
  %7 = extractvalue { ptr, i32 } %6, 0
  store ptr %7, ptr %exn.slot, align 8
  %8 = extractvalue { ptr, i32 } %6, 1
  store i32 %8, ptr %ehselector.slot, align 4
  %cleanup.is_active = load i1, ptr %cleanup.cond, align 1
  br i1 %cleanup.is_active, label %cleanup.action, label %cleanup.done

cleanup.action:                                   ; preds = %lpad
  call void @_ZN6icu_757UMemorydlEPv(ptr noundef %call2) #9
  br label %cleanup.done

cleanup.done:                                     ; preds = %cleanup.action, %lpad
  br label %eh.resume

lpad10:                                           ; preds = %new.notnull7
  %9 = landingpad { ptr, i32 }
          cleanup
  %10 = extractvalue { ptr, i32 } %9, 0
  store ptr %10, ptr %exn.slot, align 8
  %11 = extractvalue { ptr, i32 } %9, 1
  store i32 %11, ptr %ehselector.slot, align 4
  %cleanup.is_active12 = load i1, ptr %cleanup.cond8, align 1
  br i1 %cleanup.is_active12, label %cleanup.action13, label %cleanup.done14

cleanup.action13:                                 ; preds = %lpad10
  %12 = load ptr, ptr %saved-rvalue, align 8
  call void @_ZN6icu_757UMemorydlEPv(ptr noundef %12) #9
  br label %cleanup.done14

cleanup.done14:                                   ; preds = %cleanup.action13, %lpad10
  br label %eh.resume

lpad23:                                           ; preds = %new.notnull19
  %13 = landingpad { ptr, i32 }
          cleanup
  %14 = extractvalue { ptr, i32 } %13, 0
  store ptr %14, ptr %exn.slot, align 8
  %15 = extractvalue { ptr, i32 } %13, 1
  store i32 %15, ptr %ehselector.slot, align 4
  %cleanup.is_active25 = load i1, ptr %cleanup.cond21, align 1
  br i1 %cleanup.is_active25, label %cleanup.action26, label %cleanup.done27

cleanup.action26:                                 ; preds = %lpad23
  %16 = load ptr, ptr %saved-rvalue20, align 8
  call void @_ZN6icu_757UMemorydlEPv(ptr noundef %16) #9
  br label %cleanup.done27

cleanup.done27:                                   ; preds = %cleanup.action26, %lpad23
  br label %eh.resume

lpad35:                                           ; preds = %new.notnull32
  %17 = landingpad { ptr, i32 }
          cleanup
  %18 = extractvalue { ptr, i32 } %17, 0
  store ptr %18, ptr %exn.slot, align 8
  %19 = extractvalue { ptr, i32 } %17, 1
  store i32 %19, ptr %ehselector.slot, align 4
  %cleanup.is_active37 = load i1, ptr %cleanup.cond34, align 1
  br i1 %cleanup.is_active37, label %cleanup.action38, label %cleanup.done39

cleanup.action38:                                 ; preds = %lpad35
  %20 = load ptr, ptr %saved-rvalue33, align 8
  call void @_ZN6icu_757UMemorydlEPv(ptr noundef %20) #9
  br label %cleanup.done39

cleanup.done39:                                   ; preds = %cleanup.action38, %lpad35
  br label %eh.resume

lpad47:                                           ; preds = %new.notnull44
  %21 = landingpad { ptr, i32 }
          cleanup
  %22 = extractvalue { ptr, i32 } %21, 0
  store ptr %22, ptr %exn.slot, align 8
  %23 = extractvalue { ptr, i32 } %21, 1
  store i32 %23, ptr %ehselector.slot, align 4
  %cleanup.is_active49 = load i1, ptr %cleanup.cond46, align 1
  br i1 %cleanup.is_active49, label %cleanup.action50, label %cleanup.done51

cleanup.action50:                                 ; preds = %lpad47
  %24 = load ptr, ptr %saved-rvalue45, align 8
  call void @_ZN6icu_757UMemorydlEPv(ptr noundef %24) #9
  br label %cleanup.done51

cleanup.done51:                                   ; preds = %cleanup.action50, %lpad47
  br label %eh.resume

if.end:                                           ; preds = %new.cont52
  %fCompiledPat56 = getelementptr inbounds %"class.icu_75::RegexPattern", ptr %this1, i32 0, i32 4
  %25 = load ptr, ptr %fCompiledPat56, align 8
  %cmp = icmp eq ptr %25, null
  br i1 %cmp, label %if.then68, label %lor.lhs.false

lor.lhs.false:                                    ; preds = %if.end
  %fGroupMap57 = getelementptr inbounds %"class.icu_75::RegexPattern", ptr %this1, i32 0, i32 12
  %26 = load ptr, ptr %fGroupMap57, align 8
  %cmp58 = icmp eq ptr %26, null
  br i1 %cmp58, label %if.then68, label %lor.lhs.false59

lor.lhs.false59:                                  ; preds = %lor.lhs.false
  %fSets60 = getelementptr inbounds %"class.icu_75::RegexPattern", ptr %this1, i32 0, i32 6
  %27 = load ptr, ptr %fSets60, align 8
  %cmp61 = icmp eq ptr %27, null
  br i1 %cmp61, label %if.then68, label %lor.lhs.false62

lor.lhs.false62:                                  ; preds = %lor.lhs.false59
  %fInitialChars63 = getelementptr inbounds %"class.icu_75::RegexPattern", ptr %this1, i32 0, i32 16
  %28 = load ptr, ptr %fInitialChars63, align 8
  %cmp64 = icmp eq ptr %28, null
  br i1 %cmp64, label %if.then68, label %lor.lhs.false65

lor.lhs.false65:                                  ; preds = %lor.lhs.false62
  %fInitialChars866 = getelementptr inbounds %"class.icu_75::RegexPattern", ptr %this1, i32 0, i32 18
  %29 = load ptr, ptr %fInitialChars866, align 8
  %cmp67 = icmp eq ptr %29, null
  br i1 %cmp67, label %if.then68, label %if.end70

if.then68:                                        ; preds = %lor.lhs.false65, %lor.lhs.false62, %lor.lhs.false59, %lor.lhs.false, %if.end
  %fDeferredStatus69 = getelementptr inbounds %"class.icu_75::RegexPattern", ptr %this1, i32 0, i32 8
  store i32 7, ptr %fDeferredStatus69, align 8
  br label %return

if.end70:                                         ; preds = %lor.lhs.false65
  %fSets71 = getelementptr inbounds %"class.icu_75::RegexPattern", ptr %this1, i32 0, i32 6
  %30 = load ptr, ptr %fSets71, align 8
  %fDeferredStatus72 = getelementptr inbounds %"class.icu_75::RegexPattern", ptr %this1, i32 0, i32 8
  call void @_ZN6icu_757UVector10addElementEiR10UErrorCode(ptr noundef nonnull align 8 dereferenceable(40) %30, i32 noundef 0, ptr noundef nonnull align 4 dereferenceable(4) %fDeferredStatus72)
  br label %return

return:                                           ; preds = %if.end70, %if.then68, %if.then
  ret void

eh.resume:                                        ; preds = %cleanup.done51, %cleanup.done39, %cleanup.done27, %cleanup.done14, %cleanup.done
  %exn = load ptr, ptr %exn.slot, align 8
  %sel = load i32, ptr %ehselector.slot, align 4
  %lpad.val = insertvalue { ptr, i32 } poison, ptr %exn, 0
  %lpad.val73 = insertvalue { ptr, i32 } %lpad.val, i32 %sel, 1
  resume { ptr, i32 } %lpad.val73
}