; Function Attrs: mustprogress uwtable
define void @_ZN6icu_7512RegexPattern4initEv(ptr noundef nonnull align 8 dereferenceable(200) %this) local_unnamed_addr #1 align 2 personality ptr @__gxx_personality_v0 {
entry:
  %fFlags = getelementptr inbounds i8, ptr %this, i64 24
  store i32 0, ptr %fFlags, align 8
  %fCompiledPat = getelementptr inbounds i8, ptr %this, i64 32
  store ptr null, ptr %fCompiledPat, align 8
  %fUnion.i.i = getelementptr inbounds i8, ptr %this, i64 48
  %0 = load i16, ptr %fUnion.i.i, align 8
  %conv2.i3.i = and i16 %0, 1
  %tobool.not.i = icmp eq i16 %conv2.i3.i, 0
  %1 = and i16 %0, 30
  %storemerge.i = select i1 %tobool.not.i, i16 %1, i16 2
  store i16 %storemerge.i, ptr %fUnion.i.i, align 8
  %fSets = getelementptr inbounds i8, ptr %this, i64 104
  %fDeferredStatus = getelementptr inbounds i8, ptr %this, i64 120
  %fGroupMap = getelementptr inbounds i8, ptr %this, i64 136
  %fInitialChars = getelementptr inbounds i8, ptr %this, i64 160
  store ptr null, ptr %fInitialChars, align 8
  %fInitialChar = getelementptr inbounds i8, ptr %this, i64 168
  store i32 0, ptr %fInitialChar, align 8
  %fInitialChars8 = getelementptr inbounds i8, ptr %this, i64 176
  store ptr null, ptr %fInitialChars8, align 8
  %fNeedsAltInput = getelementptr inbounds i8, ptr %this, i64 184
  store i8 0, ptr %fNeedsAltInput, align 8
  %fNamedCaptureMap = getelementptr inbounds i8, ptr %this, i64 192
  store ptr null, ptr %fNamedCaptureMap, align 8
  %fPattern = getelementptr inbounds i8, ptr %this, i64 8
  tail call void @llvm.memset.p0.i64(ptr noundef nonnull align 8 dereferenceable(16) %fPattern, i8 0, i64 16, i1 false)
  tail call void @llvm.memset.p0.i64(ptr noundef nonnull align 8 dereferenceable(52) %fSets, i8 0, i64 52, i1 false)
  %call2 = tail call noundef ptr @_ZN6icu_757UMemorynwEm(i64 noundef 32) #11
  %new.isnull = icmp eq ptr %call2, null
  br i1 %new.isnull, label %new.cont, label %new.notnull

new.notnull:                                      ; preds = %entry
  invoke void @_ZN6icu_759UVector64C1ER10UErrorCode(ptr noundef nonnull align 8 dereferenceable(32) %call2, ptr noundef nonnull align 4 dereferenceable(4) %fDeferredStatus)
          to label %new.cont unwind label %lpad

new.cont:                                         ; preds = %new.notnull, %entry
  store ptr %call2, ptr %fCompiledPat, align 8
  %call5 = tail call noundef ptr @_ZN6icu_757UMemorynwEm(i64 noundef 32) #11
  %new.isnull6 = icmp eq ptr %call5, null
  br i1 %new.isnull6, label %new.cont15, label %new.notnull7

new.notnull7:                                     ; preds = %new.cont
  invoke void @_ZN6icu_759UVector32C1ER10UErrorCode(ptr noundef nonnull align 8 dereferenceable(32) %call5, ptr noundef nonnull align 4 dereferenceable(4) %fDeferredStatus)
          to label %new.cont15 unwind label %lpad10

new.cont15:                                       ; preds = %new.notnull7, %new.cont
  store ptr %call5, ptr %fGroupMap, align 8
  %call17 = tail call noundef ptr @_ZN6icu_757UMemorynwEm(i64 noundef 40) #11
  %new.isnull18 = icmp eq ptr %call17, null
  br i1 %new.isnull18, label %new.cont28, label %new.notnull19

new.notnull19:                                    ; preds = %new.cont15
  invoke void @_ZN6icu_757UVectorC1ER10UErrorCode(ptr noundef nonnull align 8 dereferenceable(40) %call17, ptr noundef nonnull align 4 dereferenceable(4) %fDeferredStatus)
          to label %new.cont28 unwind label %lpad23

new.cont28:                                       ; preds = %new.notnull19, %new.cont15
  store ptr %call17, ptr %fSets, align 8
  %call30 = tail call noundef ptr @_ZN6icu_757UMemorynwEm(i64 noundef 200) #11
  %new.isnull31 = icmp eq ptr %call30, null
  br i1 %new.isnull31, label %new.cont40, label %new.notnull32

new.notnull32:                                    ; preds = %new.cont28
  invoke void @_ZN6icu_7510UnicodeSetC1Ev(ptr noundef nonnull align 8 dereferenceable(200) %call30)
          to label %new.cont40 unwind label %lpad35

new.cont40:                                       ; preds = %new.notnull32, %new.cont28
  store ptr %call30, ptr %fInitialChars, align 8
  %call42 = tail call noundef ptr @_ZN6icu_757UMemorynwEm(i64 noundef 32) #11
  %new.isnull43 = icmp eq ptr %call42, null
  br i1 %new.isnull43, label %new.cont52, label %new.notnull44

new.notnull44:                                    ; preds = %new.cont40
  tail call void @llvm.memset.p0.i64(ptr noundef nonnull align 1 dereferenceable(32) %call42, i8 0, i64 32, i1 false)
  br label %new.cont52

new.cont52:                                       ; preds = %new.notnull44, %new.cont40
  store ptr %call42, ptr %fInitialChars8, align 8
  %2 = load i32, ptr %fDeferredStatus, align 8
  %cmp.i = icmp slt i32 %2, 1
  br i1 %cmp.i, label %if.end, label %return

lpad:                                             ; preds = %new.notnull
  %3 = landingpad { ptr, i32 }
          cleanup
  br label %eh.resume

lpad10:                                           ; preds = %new.notnull7
  %4 = landingpad { ptr, i32 }
          cleanup
  br label %eh.resume

lpad23:                                           ; preds = %new.notnull19
  %5 = landingpad { ptr, i32 }
          cleanup
  br label %eh.resume

lpad35:                                           ; preds = %new.notnull32
  %6 = landingpad { ptr, i32 }
          cleanup
  br label %eh.resume

if.end:                                           ; preds = %new.cont52
  %7 = load ptr, ptr %fCompiledPat, align 8
  %cmp = icmp eq ptr %7, null
  %8 = load ptr, ptr %fGroupMap, align 8
  %cmp58 = icmp eq ptr %8, null
  %or.cond = select i1 %cmp, i1 true, i1 %cmp58
  br i1 %or.cond, label %if.then68, label %lor.lhs.false59

lor.lhs.false59:                                  ; preds = %if.end
  %9 = load ptr, ptr %fSets, align 8
  %cmp61 = icmp eq ptr %9, null
  %10 = load ptr, ptr %fInitialChars, align 8
  %cmp64 = icmp eq ptr %10, null
  %or.cond2 = select i1 %cmp61, i1 true, i1 %cmp64
  %or.cond3 = or i1 %new.isnull43, %or.cond2
  br i1 %or.cond3, label %if.then68, label %if.end70

if.then68:                                        ; preds = %lor.lhs.false59, %if.end
  store i32 7, ptr %fDeferredStatus, align 8
  br label %return

if.end70:                                         ; preds = %lor.lhs.false59
  tail call void @_ZN6icu_757UVector10addElementEiR10UErrorCode(ptr noundef nonnull align 8 dereferenceable(40) %9, i32 noundef 0, ptr noundef nonnull align 4 dereferenceable(4) %fDeferredStatus)
  br label %return

return:                                           ; preds = %new.cont52, %if.end70, %if.then68
  ret void

eh.resume:                                        ; preds = %lpad35, %lpad23, %lpad10, %lpad
  %call30.sink = phi ptr [ %call30, %lpad35 ], [ %call17, %lpad23 ], [ %call5, %lpad10 ], [ %call2, %lpad ]
  %.pn = phi { ptr, i32 } [ %6, %lpad35 ], [ %5, %lpad23 ], [ %4, %lpad10 ], [ %3, %lpad ]
  tail call void @_ZN6icu_757UMemorydlEPv(ptr noundef nonnull %call30.sink) #11
  resume { ptr, i32 } %.pn
}